; Function Attrs: mustprogress nofree norecurse nosync nounwind willreturn memory(argmem: readwrite) uwtable
define void @_ZN4LIEF5dwarf4TypeC2ESt10unique_ptrINS0_7details4TypeESt14default_deleteIS4_EE(ptr noundef nonnull writeonly align 8 captures(none) dereferenceable(24) initializes((0, 17)) %0, ptr noundef captures(none) %1) unnamed_addr #5 align 2 {
_ZNSt10unique_ptrIN4LIEF5dwarf7details4TypeESt14default_deleteIS3_EED2Ev.exit:
  store ptr getelementptr inbounds nuw inrange(-16, 16) (i8, ptr @_ZTVN4LIEF5dwarf4TypeE, i64 16), ptr %0, align 8, !tbaa !32
  %2 = getelementptr inbounds nuw i8, ptr %0, i64 8
  %3 = load i64, ptr %1, align 8, !tbaa !101
  %4 = inttoptr i64 %3 to ptr
  store ptr null, ptr %1, align 8, !tbaa !101
  store ptr %4, ptr %2, align 8, !tbaa !103
  %5 = getelementptr inbounds nuw i8, ptr %0, i64 16
  store i8 1, ptr %5, align 8, !tbaa !105
  ret void
}